target datalayout = "e-m:e-p270:32:32-p271:32:32-p272:64:64-i64:64-i128:128-f80:128-n8:16:32:64-S128"
target triple = "x86_64-pc-linux-gnu"

%struct.Vec_Ptr_t_ = type { i32, i32, ptr }
%struct.Aig_Man_t_ = type { ptr, ptr, ptr, ptr, ptr, ptr, ptr, %struct.Aig_Obj_t_, i32, i32, i32, i32, i32, i32, [7 x i32], i32, ptr, i32, ptr, i32, ptr, i32, i32, i32, ptr, i32, i32, i32, i32, i32, ptr, ptr, i32, ptr, ptr, i32, ptr, ptr, i32, i32, i32, ptr, ptr, ptr, ptr, ptr, ptr, ptr, ptr, ptr, ptr, ptr, ptr, ptr, ptr, i32, ptr, ptr, ptr, ptr, i32, i64, i64, i64, ptr, ptr }
%struct.Aig_Obj_t_ = type { %union.anon, ptr, ptr, i64, i32, i32, %union.anon.0 }
%union.anon = type { ptr }
%union.anon.0 = type { ptr }

@.str.6 = private unnamed_addr constant [11 x i8] c"Latch %d: \00", align 1
@.str.7 = private unnamed_addr constant [8 x i8] c"%d=%d \0A\00", align 1
@.str.8 = private unnamed_addr constant [40 x i8] c"Total collected = %d. Total regs = %d.\0A\00", align 1

; Function Attrs: inlinehint nounwind uwtable
define internal ptr @Aig_Regular(ptr noundef %0) #5 {
  %2 = alloca ptr, align 8
  store ptr %0, ptr %2, align 8, !tbaa !68
  %3 = load ptr, ptr %2, align 8, !tbaa !68
  %4 = ptrtoint ptr %3 to i64
  %5 = and i64 %4, -2
  %6 = inttoptr i64 %5 to ptr
  ret ptr %6
}

; Function Attrs: inlinehint nounwind uwtable
define internal ptr @Aig_ObjFanin0(ptr noundef %0) #5 {
  %2 = alloca ptr, align 8
  store ptr %0, ptr %2, align 8, !tbaa !68
  %3 = load ptr, ptr %2, align 8, !tbaa !68
  %4 = getelementptr inbounds nuw %struct.Aig_Obj_t_, ptr %3, i32 0, i32 1
  %5 = load ptr, ptr %4, align 8, !tbaa !91
  %6 = call ptr @Aig_Regular(ptr noundef %5)
  ret ptr %6
}

; Function Attrs: inlinehint nounwind uwtable
define internal i32 @Aig_ManCoNum(ptr noundef %0) #5 {
  %2 = alloca ptr, align 8
  store ptr %0, ptr %2, align 8, !tbaa !3
  %3 = load ptr, ptr %2, align 8, !tbaa !3
  %4 = getelementptr inbounds nuw %struct.Aig_Man_t_, ptr %3, i32 0, i32 14
  %5 = getelementptr inbounds [7 x i32], ptr %4, i64 0, i64 3
  %6 = load i32, ptr %5, align 4, !tbaa !8
  ret i32 %6
}

; Function Attrs: inlinehint nounwind uwtable
define internal ptr @Vec_PtrAlloc(i32 noundef %0) #5 {
  %2 = alloca i32, align 4
  %3 = alloca ptr, align 8
  store i32 %0, ptr %2, align 4, !tbaa !8
  call void @llvm.lifetime.start.p0(i64 8, ptr %3) #9
  %4 = call noalias ptr @malloc(i64 noundef 16) #10
  store ptr %4, ptr %3, align 8, !tbaa !27
  %5 = load i32, ptr %2, align 4, !tbaa !8
  %6 = icmp sgt i32 %5, 0
  br i1 %6, label %7, label %11

7:                                                ; preds = %1
  %8 = load i32, ptr %2, align 4, !tbaa !8
  %9 = icmp slt i32 %8, 8
  br i1 %9, label %10, label %11

10:                                               ; preds = %7
  store i32 8, ptr %2, align 4, !tbaa !8
  br label %11

11:                                               ; preds = %10, %7, %1
  %12 = load ptr, ptr %3, align 8, !tbaa !27
  %13 = getelementptr inbounds nuw %struct.Vec_Ptr_t_, ptr %12, i32 0, i32 1
  store i32 0, ptr %13, align 4, !tbaa !28
  %14 = load i32, ptr %2, align 4, !tbaa !8
  %15 = load ptr, ptr %3, align 8, !tbaa !27
  %16 = getelementptr inbounds nuw %struct.Vec_Ptr_t_, ptr %15, i32 0, i32 0
  store i32 %14, ptr %16, align 8, !tbaa !30
  %17 = load ptr, ptr %3, align 8, !tbaa !27
  %18 = getelementptr inbounds nuw %struct.Vec_Ptr_t_, ptr %17, i32 0, i32 0
  %19 = load i32, ptr %18, align 8, !tbaa !30
  %20 = icmp ne i32 %19, 0
  br i1 %20, label %21, label %28

21:                                               ; preds = %11
  %22 = load ptr, ptr %3, align 8, !tbaa !27
  %23 = getelementptr inbounds nuw %struct.Vec_Ptr_t_, ptr %22, i32 0, i32 0
  %24 = load i32, ptr %23, align 8, !tbaa !30
  %25 = sext i32 %24 to i64
  %26 = mul i64 8, %25
  %27 = call noalias ptr @malloc(i64 noundef %26) #10
  br label %29

28:                                               ; preds = %11
  br label %29

29:                                               ; preds = %28, %21
  %30 = phi ptr [ %27, %21 ], [ null, %28 ]
  %31 = load ptr, ptr %3, align 8, !tbaa !27
  %32 = getelementptr inbounds nuw %struct.Vec_Ptr_t_, ptr %31, i32 0, i32 2
  store ptr %30, ptr %32, align 8, !tbaa !31
  %33 = load ptr, ptr %3, align 8, !tbaa !27
  call void @llvm.lifetime.end.p0(i64 8, ptr %3) #9
  ret ptr %33
}

; Function Attrs: inlinehint nounwind uwtable
define internal i32 @Aig_ManRegNum(ptr noundef %0) #5 {
  %2 = alloca ptr, align 8
  store ptr %0, ptr %2, align 8, !tbaa !3
  %3 = load ptr, ptr %2, align 8, !tbaa !3
  %4 = getelementptr inbounds nuw %struct.Aig_Man_t_, ptr %3, i32 0, i32 8
  %5 = load i32, ptr %4, align 8, !tbaa !44
  ret i32 %5
}

; Function Attrs: inlinehint nounwind uwtable
define internal ptr @Vec_PtrEntry(ptr noundef %0, i32 noundef %1) #5 {
  %3 = alloca ptr, align 8
  %4 = alloca i32, align 4
  store ptr %0, ptr %3, align 8, !tbaa !27
  store i32 %1, ptr %4, align 4, !tbaa !8
  %5 = load ptr, ptr %3, align 8, !tbaa !27
  %6 = getelementptr inbounds nuw %struct.Vec_Ptr_t_, ptr %5, i32 0, i32 2
  %7 = load ptr, ptr %6, align 8, !tbaa !31
  %8 = load i32, ptr %4, align 4, !tbaa !8
  %9 = sext i32 %8 to i64
  %10 = getelementptr inbounds ptr, ptr %7, i64 %9
  %11 = load ptr, ptr %10, align 8, !tbaa !59
  ret ptr %11
}

; Function Attrs: inlinehint nounwind uwtable
define internal i32 @Vec_PtrSize(ptr noundef %0) #5 {
  %2 = alloca ptr, align 8
  store ptr %0, ptr %2, align 8, !tbaa !27
  %3 = load ptr, ptr %2, align 8, !tbaa !27
  %4 = getelementptr inbounds nuw %struct.Vec_Ptr_t_, ptr %3, i32 0, i32 1
  %5 = load i32, ptr %4, align 4, !tbaa !28
  ret i32 %5
}

; Function Attrs: nounwind uwtable
define ptr @Aig_ManRegPartitionTraverse(ptr noundef %0) #0 {
  %2 = alloca ptr, align 8
  %3 = alloca ptr, align 8
  %4 = alloca ptr, align 8
  %5 = alloca i32, align 4
  %6 = alloca i32, align 4
  %7 = alloca i32, align 4
  store ptr %0, ptr %2, align 8, !tbaa !3
  call void @llvm.lifetime.start.p0(i64 8, ptr %3) #9
  call void @llvm.lifetime.start.p0(i64 8, ptr %4) #9
  call void @llvm.lifetime.start.p0(i64 4, ptr %5) #9
  call void @llvm.lifetime.start.p0(i64 4, ptr %6) #9
  call void @llvm.lifetime.start.p0(i64 4, ptr %7) #9
  store i32 0, ptr %5, align 4, !tbaa !8
  br label %8

8:                                                ; preds = %27, %1
  %9 = load i32, ptr %5, align 4, !tbaa !8
  %10 = load ptr, ptr %2, align 8, !tbaa !3
  %11 = getelementptr inbounds nuw %struct.Aig_Man_t_, ptr %10, i32 0, i32 2
  %12 = load ptr, ptr %11, align 8, !tbaa !67
  %13 = call i32 @Vec_PtrSize(ptr noundef %12)
  %14 = icmp slt i32 %9, %13
  br i1 %14, label %15, label %21

15:                                               ; preds = %8
  %16 = load ptr, ptr %2, align 8, !tbaa !3
  %17 = getelementptr inbounds nuw %struct.Aig_Man_t_, ptr %16, i32 0, i32 2
  %18 = load ptr, ptr %17, align 8, !tbaa !67
  %19 = load i32, ptr %5, align 4, !tbaa !8
  %20 = call ptr @Vec_PtrEntry(ptr noundef %18, i32 noundef %19)
  store ptr %20, ptr %4, align 8, !tbaa !68
  br label %21

21:                                               ; preds = %15, %8
  %22 = phi i1 [ false, %8 ], [ true, %15 ]
  br i1 %22, label %23, label %30

23:                                               ; preds = %21
  %24 = load i32, ptr %5, align 4, !tbaa !8
  %25 = load ptr, ptr %4, align 8, !tbaa !68
  %26 = getelementptr inbounds nuw %struct.Aig_Obj_t_, ptr %25, i32 0, i32 6
  store i32 %24, ptr %26, align 8, !tbaa !56
  br label %27

27:                                               ; preds = %23
  %28 = load i32, ptr %5, align 4, !tbaa !8
  %29 = add nsw i32 %28, 1
  store i32 %29, ptr %5, align 4, !tbaa !8
  br label %8, !llvm.loop !101

30:                                               ; preds = %21
  %31 = load ptr, ptr %2, align 8, !tbaa !3
  %32 = call i32 @Aig_ManRegNum(ptr noundef %31)
  %33 = call ptr @Vec_PtrAlloc(i32 noundef %32)
  store ptr %33, ptr %3, align 8, !tbaa !27
  store i32 0, ptr %6, align 4, !tbaa !8
  store i32 0, ptr %7, align 4, !tbaa !8
  %34 = load ptr, ptr %2, align 8, !tbaa !3
  call void @Aig_ManIncrementTravId(ptr noundef %34)
  %35 = load ptr, ptr %2, align 8, !tbaa !3
  %36 = call i32 @Aig_ManCoNum(ptr noundef %35)
  %37 = load ptr, ptr %2, align 8, !tbaa !3
  %38 = call i32 @Aig_ManRegNum(ptr noundef %37)
  %39 = sub nsw i32 %36, %38
  store i32 %39, ptr %5, align 4, !tbaa !8
  br label %40

40:                                               ; preds = %72, %30
  %41 = load i32, ptr %5, align 4, !tbaa !8
  %42 = load ptr, ptr %2, align 8, !tbaa !3
  %43 = getelementptr inbounds nuw %struct.Aig_Man_t_, ptr %42, i32 0, i32 3
  %44 = load ptr, ptr %43, align 8, !tbaa !90
  %45 = call i32 @Vec_PtrSize(ptr noundef %44)
  %46 = icmp slt i32 %41, %45
  br i1 %46, label %47, label %53

47:                                               ; preds = %40
  %48 = load ptr, ptr %2, align 8, !tbaa !3
  %49 = getelementptr inbounds nuw %struct.Aig_Man_t_, ptr %48, i32 0, i32 3
  %50 = load ptr, ptr %49, align 8, !tbaa !90
  %51 = load i32, ptr %5, align 4, !tbaa !8
  %52 = call ptr @Vec_PtrEntry(ptr noundef %50, i32 noundef %51)
  store ptr %52, ptr %4, align 8, !tbaa !68
  br label %53

53:                                               ; preds = %47, %40
  %54 = phi i1 [ false, %40 ], [ true, %47 ]
  br i1 %54, label %55, label %75

55:                                               ; preds = %53
  %56 = load i32, ptr %7, align 4, !tbaa !8
  %57 = add nsw i32 %56, 1
  store i32 %57, ptr %7, align 4, !tbaa !8
  %58 = load i32, ptr %7, align 4, !tbaa !8
  %59 = call i32 (ptr, ...) @printf(ptr noundef @.str.6, i32 noundef %58)
  %60 = load ptr, ptr %2, align 8, !tbaa !3
  %61 = load ptr, ptr %4, align 8, !tbaa !68
  %62 = call ptr @Aig_ObjFanin0(ptr noundef %61)
  %63 = load ptr, ptr %3, align 8, !tbaa !27
  call void @Aig_ManRegPartitionTraverse_rec(ptr noundef %60, ptr noundef %62, ptr noundef %63)
  %64 = load i32, ptr %7, align 4, !tbaa !8
  %65 = load ptr, ptr %3, align 8, !tbaa !27
  %66 = call i32 @Vec_PtrSize(ptr noundef %65)
  %67 = load i32, ptr %6, align 4, !tbaa !8
  %68 = sub nsw i32 %66, %67
  %69 = call i32 (ptr, ...) @printf(ptr noundef @.str.7, i32 noundef %64, i32 noundef %68)
  %70 = load ptr, ptr %3, align 8, !tbaa !27
  %71 = call i32 @Vec_PtrSize(ptr noundef %70)
  store i32 %71, ptr %6, align 4, !tbaa !8
  br label %72

72:                                               ; preds = %55
  %73 = load i32, ptr %5, align 4, !tbaa !8
  %74 = add nsw i32 %73, 1
  store i32 %74, ptr %5, align 4, !tbaa !8
  br label %40, !llvm.loop !102

75:                                               ; preds = %53
  %76 = load ptr, ptr %3, align 8, !tbaa !27
  %77 = call i32 @Vec_PtrSize(ptr noundef %76)
  %78 = load ptr, ptr %2, align 8, !tbaa !3
  %79 = call i32 @Aig_ManRegNum(ptr noundef %78)
  %80 = call i32 (ptr, ...) @printf(ptr noundef @.str.8, i32 noundef %77, i32 noundef %79)
  %81 = load ptr, ptr %3, align 8, !tbaa !27
  call void @llvm.lifetime.end.p0(i64 4, ptr %7) #9
  call void @llvm.lifetime.end.p0(i64 4, ptr %6) #9
  call void @llvm.lifetime.end.p0(i64 4, ptr %5) #9
  call void @llvm.lifetime.end.p0(i64 8, ptr %4) #9
  call void @llvm.lifetime.end.p0(i64 8, ptr %3) #9
  ret ptr %81
}