; Function Attrs: nounwind uwtable
define noalias noundef ptr @Aig_ManRegPartitionTraverse(ptr noundef %0) local_unnamed_addr #0 {
  %2 = getelementptr inbounds nuw i8, ptr %0, i64 16
  %3 = load ptr, ptr %2, align 8, !tbaa !63
  %4 = getelementptr i8, ptr %3, i64 4
  %.val3942 = load i32, ptr %4, align 4, !tbaa !16
  %5 = icmp sgt i32 %.val3942, 0
  br i1 %5, label %.lr.ph, label %.critedge

.lr.ph:                                           ; preds = %1, %.lr.ph
  %indvars.iv = phi i64 [ %indvars.iv.next, %.lr.ph ], [ 0, %1 ]
  %6 = phi ptr [ %12, %.lr.ph ], [ %3, %1 ]
  %7 = getelementptr i8, ptr %6, i64 8
  %.val34 = load ptr, ptr %7, align 8, !tbaa !19
  %8 = getelementptr inbounds nuw ptr, ptr %.val34, i64 %indvars.iv
  %9 = load ptr, ptr %8, align 8, !tbaa !49
  %10 = getelementptr inbounds nuw i8, ptr %9, i64 40
  %11 = trunc nuw nsw i64 %indvars.iv to i32
  store i32 %11, ptr %10, align 8, !tbaa !52
  %indvars.iv.next = add nuw nsw i64 %indvars.iv, 1
  %12 = load ptr, ptr %2, align 8, !tbaa !63
  %13 = getelementptr i8, ptr %12, i64 4
  %.val39 = load i32, ptr %13, align 4, !tbaa !16
  %14 = sext i32 %.val39 to i64
  %15 = icmp slt i64 %indvars.iv.next, %14
  br i1 %15, label %.lr.ph, label %.critedge, !llvm.loop !94

.critedge:                                        ; preds = %.lr.ph, %1
  %16 = getelementptr i8, ptr %0, i64 104
  %.val32 = load i32, ptr %16, align 8, !tbaa !35
  %17 = tail call noalias dereferenceable_or_null(16) ptr @malloc(i64 noundef 16) #13
  %18 = add i32 %.val32, -1
  %or.cond.i = icmp ult i32 %18, 7
  %spec.store.select.i = select i1 %or.cond.i, i32 8, i32 %.val32
  %19 = getelementptr inbounds nuw i8, ptr %17, i64 4
  store i32 0, ptr %19, align 4, !tbaa !16
  store i32 %spec.store.select.i, ptr %17, align 8, !tbaa !18
  %.not.i = icmp eq i32 %spec.store.select.i, 0
  br i1 %.not.i, label %Vec_PtrAlloc.exit, label %20

20:                                               ; preds = %.critedge
  %21 = sext i32 %spec.store.select.i to i64
  %22 = shl nsw i64 %21, 3
  %23 = tail call noalias ptr @malloc(i64 noundef %22) #13
  br label %Vec_PtrAlloc.exit

Vec_PtrAlloc.exit:                                ; preds = %.critedge, %20
  %24 = phi ptr [ %23, %20 ], [ null, %.critedge ]
  %25 = getelementptr inbounds nuw i8, ptr %17, i64 8
  store ptr %24, ptr %25, align 8, !tbaa !19
  tail call void @Aig_ManIncrementTravId(ptr noundef nonnull %0) #12
  %26 = getelementptr i8, ptr %0, i64 140
  %.val40 = load i32, ptr %26, align 4, !tbaa !53
  %.val31 = load i32, ptr %16, align 8, !tbaa !35
  %27 = sub nsw i32 %.val40, %.val31
  %28 = getelementptr inbounds nuw i8, ptr %0, i64 24
  %29 = load ptr, ptr %28, align 8, !tbaa !71
  %30 = getelementptr i8, ptr %29, i64 4
  %.val3844 = load i32, ptr %30, align 4, !tbaa !16
  %31 = icmp slt i32 %27, %.val3844
  br i1 %31, label %.lr.ph48.preheader, label %.critedge2

.lr.ph48.preheader:                               ; preds = %Vec_PtrAlloc.exit
  %32 = sext i32 %27 to i64
  br label %.lr.ph48

.lr.ph48:                                         ; preds = %.lr.ph48.preheader, %.lr.ph48
  %indvars.iv50 = phi i64 [ %32, %.lr.ph48.preheader ], [ %indvars.iv.next51, %.lr.ph48 ]
  %33 = phi ptr [ %29, %.lr.ph48.preheader ], [ %45, %.lr.ph48 ]
  %.047 = phi i32 [ 0, %.lr.ph48.preheader ], [ %37, %.lr.ph48 ]
  %.02946 = phi i32 [ 0, %.lr.ph48.preheader ], [ %.val37, %.lr.ph48 ]
  %34 = getelementptr i8, ptr %33, i64 8
  %.val33 = load ptr, ptr %34, align 8, !tbaa !19
  %35 = getelementptr inbounds ptr, ptr %.val33, i64 %indvars.iv50
  %36 = load ptr, ptr %35, align 8, !tbaa !49
  %37 = add nuw nsw i32 %.047, 1
  %38 = tail call i32 (ptr, ...) @printf(ptr noundef nonnull dereferenceable(1) @.str.6, i32 noundef %37)
  %39 = getelementptr i8, ptr %36, i64 8
  %.val41 = load ptr, ptr %39, align 8, !tbaa !72
  %40 = ptrtoint ptr %.val41 to i64
  %41 = and i64 %40, -2
  %42 = inttoptr i64 %41 to ptr
  tail call void @Aig_ManRegPartitionTraverse_rec(ptr noundef nonnull %0, ptr noundef %42, ptr noundef nonnull %17)
  %.val37 = load i32, ptr %19, align 4, !tbaa !16
  %43 = sub nsw i32 %.val37, %.02946
  %44 = tail call i32 (ptr, ...) @printf(ptr noundef nonnull dereferenceable(1) @.str.7, i32 noundef %37, i32 noundef %43)
  %indvars.iv.next51 = add nsw i64 %indvars.iv50, 1
  %45 = load ptr, ptr %28, align 8, !tbaa !71
  %46 = getelementptr i8, ptr %45, i64 4
  %.val38 = load i32, ptr %46, align 4, !tbaa !16
  %47 = sext i32 %.val38 to i64
  %48 = icmp slt i64 %indvars.iv.next51, %47
  br i1 %48, label %.lr.ph48, label %.critedge2.loopexit, !llvm.loop !95

.critedge2.loopexit:                              ; preds = %.lr.ph48
  %.val.pre = load i32, ptr %16, align 8, !tbaa !35
  br label %.critedge2

.critedge2:                                       ; preds = %.critedge2.loopexit, %Vec_PtrAlloc.exit
  %.val = phi i32 [ %.val.pre, %.critedge2.loopexit ], [ %.val31, %Vec_PtrAlloc.exit ]
  %.val35 = phi i32 [ %.val37, %.critedge2.loopexit ], [ 0, %Vec_PtrAlloc.exit ]
  %49 = tail call i32 (ptr, ...) @printf(ptr noundef nonnull dereferenceable(1) @.str.8, i32 noundef %.val35, i32 noundef %.val)
  ret ptr %17
}